target datalayout = "e-m:e-p270:32:32-p271:32:32-p272:64:64-i64:64-i128:128-f80:128-n8:16:32:64-S128"
target triple = "x86_64-pc-linux-gnu"

%struct.PLpgSQL_stmt = type { i32, i32, i32 }
%struct.PLpgSQL_stmt_exit = type { i32, i32, i32, i8, ptr, ptr }
%struct.PLpgSQL_stmt_getdiag = type { i32, i32, i32, i8, ptr }
%struct.PLpgSQL_stmt_fetch = type { i32, i32, i32, ptr, i32, i32, i64, ptr, i8, i8 }
%struct.PLpgSQL_stmt_call = type { i32, i32, i32, ptr, i8, ptr }

@.str.1 = private unnamed_addr constant [16 x i8] c"statement block\00", align 1
@.str.2 = private unnamed_addr constant [11 x i8] c"assignment\00", align 1
@.str.3 = private unnamed_addr constant [3 x i8] c"IF\00", align 1
@.str.4 = private unnamed_addr constant [5 x i8] c"CASE\00", align 1
@.str.5 = private unnamed_addr constant [5 x i8] c"LOOP\00", align 1
@.str.6 = private unnamed_addr constant [6 x i8] c"WHILE\00", align 1
@.str.7 = private unnamed_addr constant [31 x i8] c"FOR with integer loop variable\00", align 1
@.str.8 = private unnamed_addr constant [21 x i8] c"FOR over SELECT rows\00", align 1
@.str.9 = private unnamed_addr constant [16 x i8] c"FOR over cursor\00", align 1
@.str.10 = private unnamed_addr constant [19 x i8] c"FOREACH over array\00", align 1
@.str.11 = private unnamed_addr constant [5 x i8] c"EXIT\00", align 1
@.str.12 = private unnamed_addr constant [9 x i8] c"CONTINUE\00", align 1
@.str.13 = private unnamed_addr constant [7 x i8] c"RETURN\00", align 1
@.str.14 = private unnamed_addr constant [12 x i8] c"RETURN NEXT\00", align 1
@.str.15 = private unnamed_addr constant [13 x i8] c"RETURN QUERY\00", align 1
@.str.16 = private unnamed_addr constant [6 x i8] c"RAISE\00", align 1
@.str.17 = private unnamed_addr constant [7 x i8] c"ASSERT\00", align 1
@.str.18 = private unnamed_addr constant [14 x i8] c"SQL statement\00", align 1
@.str.19 = private unnamed_addr constant [8 x i8] c"EXECUTE\00", align 1
@.str.20 = private unnamed_addr constant [27 x i8] c"FOR over EXECUTE statement\00", align 1
@.str.21 = private unnamed_addr constant [24 x i8] c"GET STACKED DIAGNOSTICS\00", align 1
@.str.22 = private unnamed_addr constant [16 x i8] c"GET DIAGNOSTICS\00", align 1
@.str.23 = private unnamed_addr constant [5 x i8] c"OPEN\00", align 1
@.str.24 = private unnamed_addr constant [5 x i8] c"MOVE\00", align 1
@.str.25 = private unnamed_addr constant [6 x i8] c"FETCH\00", align 1
@.str.26 = private unnamed_addr constant [6 x i8] c"CLOSE\00", align 1
@.str.27 = private unnamed_addr constant [8 x i8] c"PERFORM\00", align 1
@.str.28 = private unnamed_addr constant [5 x i8] c"CALL\00", align 1
@.str.29 = private unnamed_addr constant [3 x i8] c"DO\00", align 1
@.str.30 = private unnamed_addr constant [7 x i8] c"COMMIT\00", align 1
@.str.31 = private unnamed_addr constant [9 x i8] c"ROLLBACK\00", align 1
@.str.32 = private unnamed_addr constant [8 x i8] c"unknown\00", align 1

; Function Attrs: nounwind uwtable
define ptr @plpgsql_stmt_typename(ptr noundef %0) #0 {
  %2 = alloca ptr, align 8
  %3 = alloca ptr, align 8
  store ptr %0, ptr %3, align 8
  %4 = load ptr, ptr %3, align 8
  %5 = getelementptr inbounds nuw %struct.PLpgSQL_stmt, ptr %4, i32 0, i32 0
  %6 = load i32, ptr %5, align 4
  switch i32 %6, label %54 [
    i32 0, label %7
    i32 1, label %8
    i32 2, label %9
    i32 3, label %10
    i32 4, label %11
    i32 5, label %12
    i32 6, label %13
    i32 7, label %14
    i32 8, label %15
    i32 9, label %16
    i32 10, label %17
    i32 11, label %23
    i32 12, label %24
    i32 13, label %25
    i32 14, label %26
    i32 15, label %27
    i32 16, label %28
    i32 17, label %29
    i32 18, label %30
    i32 19, label %31
    i32 20, label %37
    i32 21, label %38
    i32 22, label %44
    i32 23, label %45
    i32 24, label %46
    i32 25, label %52
    i32 26, label %53
  ]

7:                                                ; preds = %1
  store ptr @.str.1, ptr %2, align 8
  br label %55

8:                                                ; preds = %1
  store ptr @.str.2, ptr %2, align 8
  br label %55

9:                                                ; preds = %1
  store ptr @.str.3, ptr %2, align 8
  br label %55

10:                                               ; preds = %1
  store ptr @.str.4, ptr %2, align 8
  br label %55

11:                                               ; preds = %1
  store ptr @.str.5, ptr %2, align 8
  br label %55

12:                                               ; preds = %1
  store ptr @.str.6, ptr %2, align 8
  br label %55

13:                                               ; preds = %1
  store ptr @.str.7, ptr %2, align 8
  br label %55

14:                                               ; preds = %1
  store ptr @.str.8, ptr %2, align 8
  br label %55

15:                                               ; preds = %1
  store ptr @.str.9, ptr %2, align 8
  br label %55

16:                                               ; preds = %1
  store ptr @.str.10, ptr %2, align 8
  br label %55

17:                                               ; preds = %1
  %18 = load ptr, ptr %3, align 8
  %19 = getelementptr inbounds nuw %struct.PLpgSQL_stmt_exit, ptr %18, i32 0, i32 3
  %20 = load i8, ptr %19, align 4, !range !7, !noundef !8
  %21 = trunc i8 %20 to i1
  %22 = select i1 %21, ptr @.str.11, ptr @.str.12
  store ptr %22, ptr %2, align 8
  br label %55

23:                                               ; preds = %1
  store ptr @.str.13, ptr %2, align 8
  br label %55

24:                                               ; preds = %1
  store ptr @.str.14, ptr %2, align 8
  br label %55

25:                                               ; preds = %1
  store ptr @.str.15, ptr %2, align 8
  br label %55

26:                                               ; preds = %1
  store ptr @.str.16, ptr %2, align 8
  br label %55

27:                                               ; preds = %1
  store ptr @.str.17, ptr %2, align 8
  br label %55

28:                                               ; preds = %1
  store ptr @.str.18, ptr %2, align 8
  br label %55

29:                                               ; preds = %1
  store ptr @.str.19, ptr %2, align 8
  br label %55

30:                                               ; preds = %1
  store ptr @.str.20, ptr %2, align 8
  br label %55

31:                                               ; preds = %1
  %32 = load ptr, ptr %3, align 8
  %33 = getelementptr inbounds nuw %struct.PLpgSQL_stmt_getdiag, ptr %32, i32 0, i32 3
  %34 = load i8, ptr %33, align 4, !range !7, !noundef !8
  %35 = trunc i8 %34 to i1
  %36 = select i1 %35, ptr @.str.21, ptr @.str.22
  store ptr %36, ptr %2, align 8
  br label %55

37:                                               ; preds = %1
  store ptr @.str.23, ptr %2, align 8
  br label %55

38:                                               ; preds = %1
  %39 = load ptr, ptr %3, align 8
  %40 = getelementptr inbounds nuw %struct.PLpgSQL_stmt_fetch, ptr %39, i32 0, i32 8
  %41 = load i8, ptr %40, align 8, !range !7, !noundef !8
  %42 = trunc i8 %41 to i1
  %43 = select i1 %42, ptr @.str.24, ptr @.str.25
  store ptr %43, ptr %2, align 8
  br label %55

44:                                               ; preds = %1
  store ptr @.str.26, ptr %2, align 8
  br label %55

45:                                               ; preds = %1
  store ptr @.str.27, ptr %2, align 8
  br label %55

46:                                               ; preds = %1
  %47 = load ptr, ptr %3, align 8
  %48 = getelementptr inbounds nuw %struct.PLpgSQL_stmt_call, ptr %47, i32 0, i32 4
  %49 = load i8, ptr %48, align 8, !range !7, !noundef !8
  %50 = trunc i8 %49 to i1
  %51 = select i1 %50, ptr @.str.28, ptr @.str.29
  store ptr %51, ptr %2, align 8
  br label %55

52:                                               ; preds = %1
  store ptr @.str.30, ptr %2, align 8
  br label %55

53:                                               ; preds = %1
  store ptr @.str.31, ptr %2, align 8
  br label %55

54:                                               ; preds = %1
  store ptr @.str.32, ptr %2, align 8
  br label %55

55:                                               ; preds = %54, %53, %52, %46, %45, %44, %38, %37, %31, %30, %29, %28, %27, %26, %25, %24, %23, %17, %16, %15, %14, %13, %12, %11, %10, %9, %8, %7
  %56 = load ptr, ptr %2, align 8
  ret ptr %56
}