; Function Attrs: mustprogress nofree norecurse nosync nounwind willreturn memory(argmem: read) uwtable
define nonnull ptr @plpgsql_stmt_typename(ptr noundef readonly captures(none) %0) local_unnamed_addr #10 {
  %2 = load i32, ptr %0, align 4
  switch i32 %2, label %45 [
    i32 0, label %46
    i32 1, label %3
    i32 2, label %4
    i32 3, label %5
    i32 4, label %6
    i32 5, label %7
    i32 6, label %8
    i32 7, label %9
    i32 8, label %10
    i32 9, label %11
    i32 10, label %12
    i32 11, label %17
    i32 12, label %18
    i32 13, label %19
    i32 14, label %20
    i32 15, label %21
    i32 16, label %22
    i32 17, label %23
    i32 18, label %24
    i32 19, label %25
    i32 20, label %30
    i32 21, label %31
    i32 22, label %36
    i32 23, label %37
    i32 24, label %38
    i32 25, label %43
    i32 26, label %44
  ]

3:                                                ; preds = %1
  br label %46

4:                                                ; preds = %1
  br label %46

5:                                                ; preds = %1
  br label %46

6:                                                ; preds = %1
  br label %46

7:                                                ; preds = %1
  br label %46

8:                                                ; preds = %1
  br label %46

9:                                                ; preds = %1
  br label %46

10:                                               ; preds = %1
  br label %46

11:                                               ; preds = %1
  br label %46

12:                                               ; preds = %1
  %13 = getelementptr inbounds nuw i8, ptr %0, i64 12
  %14 = load i8, ptr %13, align 4, !range !9, !noundef !10
  %15 = trunc nuw i8 %14 to i1
  %16 = select i1 %15, ptr @.str.11, ptr @.str.12
  br label %46

17:                                               ; preds = %1
  br label %46

18:                                               ; preds = %1
  br label %46

19:                                               ; preds = %1
  br label %46

20:                                               ; preds = %1
  br label %46

21:                                               ; preds = %1
  br label %46

22:                                               ; preds = %1
  br label %46

23:                                               ; preds = %1
  br label %46

24:                                               ; preds = %1
  br label %46

25:                                               ; preds = %1
  %26 = getelementptr inbounds nuw i8, ptr %0, i64 12
  %27 = load i8, ptr %26, align 4, !range !9, !noundef !10
  %28 = trunc nuw i8 %27 to i1
  %29 = select i1 %28, ptr @.str.21, ptr @.str.22
  br label %46

30:                                               ; preds = %1
  br label %46

31:                                               ; preds = %1
  %32 = getelementptr inbounds nuw i8, ptr %0, i64 48
  %33 = load i8, ptr %32, align 8, !range !9, !noundef !10
  %34 = trunc nuw i8 %33 to i1
  %35 = select i1 %34, ptr @.str.24, ptr @.str.25
  br label %46

36:                                               ; preds = %1
  br label %46

37:                                               ; preds = %1
  br label %46

38:                                               ; preds = %1
  %39 = getelementptr inbounds nuw i8, ptr %0, i64 24
  %40 = load i8, ptr %39, align 8, !range !9, !noundef !10
  %41 = trunc nuw i8 %40 to i1
  %42 = select i1 %41, ptr @.str.28, ptr @.str.29
  br label %46

43:                                               ; preds = %1
  br label %46

44:                                               ; preds = %1
  br label %46

45:                                               ; preds = %1
  br label %46

46:                                               ; preds = %1, %45, %44, %43, %38, %37, %36, %31, %30, %25, %24, %23, %22, %21, %20, %19, %18, %17, %12, %11, %10, %9, %8, %7, %6, %5, %4, %3
  %.0 = phi ptr [ @.str.32, %45 ], [ @.str.31, %44 ], [ @.str.30, %43 ], [ %42, %38 ], [ @.str.27, %37 ], [ @.str.26, %36 ], [ %35, %31 ], [ @.str.23, %30 ], [ %29, %25 ], [ @.str.20, %24 ], [ @.str.19, %23 ], [ @.str.18, %22 ], [ @.str.17, %21 ], [ @.str.16, %20 ], [ @.str.15, %19 ], [ @.str.14, %18 ], [ @.str.13, %17 ], [ %16, %12 ], [ @.str.10, %11 ], [ @.str.9, %10 ], [ @.str.8, %9 ], [ @.str.7, %8 ], [ @.str.6, %7 ], [ @.str.5, %6 ], [ @.str.4, %5 ], [ @.str.3, %4 ], [ @.str.2, %3 ], [ @.str.1, %1 ]
  ret ptr %.0
}